target datalayout = "e-m:e-p270:32:32-p271:32:32-p272:64:64-i64:64-i128:128-f80:128-n8:16:32:64-S128"
target triple = "x86_64-pc-linux-gnu"

%struct.paramType = type { i32, ptr, ptr, i32 }
%struct.playparamType = type { i32, ptr, ptr, i32 }
%class.System = type { i32, i32, i32, i32, i32, i32, %"class.std::vector", %"class.std::vector.0", %"class.std::vector.4", %"class.std::vector.9", %"class.std::vector.14", %"class.std::vector.19", ptr, ptr }
%"class.std::vector" = type { %"struct.std::_Bvector_base" }
%"struct.std::_Bvector_base" = type { %"struct.std::_Bvector_base<std::allocator<bool>>::_Bvector_impl" }
%"struct.std::_Bvector_base<std::allocator<bool>>::_Bvector_impl" = type { %"struct.std::_Bvector_base<std::allocator<bool>>::_Bvector_impl_data" }
%"struct.std::_Bvector_base<std::allocator<bool>>::_Bvector_impl_data" = type { %"struct.std::_Bit_iterator", %"struct.std::_Bit_iterator", ptr }
%"struct.std::_Bit_iterator" = type { %"struct.std::_Bit_iterator_base.base", [4 x i8] }
%"struct.std::_Bit_iterator_base.base" = type <{ ptr, i32 }>
%"class.std::vector.0" = type { %"struct.std::_Vector_base" }
%"struct.std::_Vector_base" = type { %"struct.std::_Vector_base<void (*)(int), std::allocator<void (*)(int)>>::_Vector_impl" }
%"struct.std::_Vector_base<void (*)(int), std::allocator<void (*)(int)>>::_Vector_impl" = type { %"struct.std::_Vector_base<void (*)(int), std::allocator<void (*)(int)>>::_Vector_impl_data" }
%"struct.std::_Vector_base<void (*)(int), std::allocator<void (*)(int)>>::_Vector_impl_data" = type { ptr, ptr, ptr }
%"class.std::vector.4" = type { %"struct.std::_Vector_base.5" }
%"struct.std::_Vector_base.5" = type { %"struct.std::_Vector_base<void (*)(const boards &, std::vector<int> &, std::vector<int> &), std::allocator<void (*)(const boards &, std::vector<int> &, std::vector<int> &)>>::_Vector_impl" }
%"struct.std::_Vector_base<void (*)(const boards &, std::vector<int> &, std::vector<int> &), std::allocator<void (*)(const boards &, std::vector<int> &, std::vector<int> &)>>::_Vector_impl" = type { %"struct.std::_Vector_base<void (*)(const boards &, std::vector<int> &, std::vector<int> &), std::allocator<void (*)(const boards &, std::vector<int> &, std::vector<int> &)>>::_Vector_impl_data" }
%"struct.std::_Vector_base<void (*)(const boards &, std::vector<int> &, std::vector<int> &), std::allocator<void (*)(const boards &, std::vector<int> &, std::vector<int> &)>>::_Vector_impl_data" = type { ptr, ptr, ptr }
%"class.std::vector.9" = type { %"struct.std::_Vector_base.10" }
%"struct.std::_Vector_base.10" = type { %"struct.std::_Vector_base<void (*)(int, int), std::allocator<void (*)(int, int)>>::_Vector_impl" }
%"struct.std::_Vector_base<void (*)(int, int), std::allocator<void (*)(int, int)>>::_Vector_impl" = type { %"struct.std::_Vector_base<void (*)(int, int), std::allocator<void (*)(int, int)>>::_Vector_impl_data" }
%"struct.std::_Vector_base<void (*)(int, int), std::allocator<void (*)(int, int)>>::_Vector_impl_data" = type { ptr, ptr, ptr }
%"class.std::vector.14" = type { %"struct.std::_Vector_base.15" }
%"struct.std::_Vector_base.15" = type { %"struct.std::_Vector_base<void (*)(const std::vector<int> &), std::allocator<void (*)(const std::vector<int> &)>>::_Vector_impl" }
%"struct.std::_Vector_base<void (*)(const std::vector<int> &), std::allocator<void (*)(const std::vector<int> &)>>::_Vector_impl" = type { %"struct.std::_Vector_base<void (*)(const std::vector<int> &), std::allocator<void (*)(const std::vector<int> &)>>::_Vector_impl_data" }
%"struct.std::_Vector_base<void (*)(const std::vector<int> &), std::allocator<void (*)(const std::vector<int> &)>>::_Vector_impl_data" = type { ptr, ptr, ptr }
%"class.std::vector.19" = type { %"struct.std::_Vector_base.20" }
%"struct.std::_Vector_base.20" = type { %"struct.std::_Vector_base<int (System::*)(), std::allocator<int (System::*)()>>::_Vector_impl" }
%"struct.std::_Vector_base<int (System::*)(), std::allocator<int (System::*)()>>::_Vector_impl" = type { %"struct.std::_Vector_base<int (System::*)(), std::allocator<int (System::*)()>>::_Vector_impl_data" }
%"struct.std::_Vector_base<int (System::*)(), std::allocator<int (System::*)()>>::_Vector_impl_data" = type { ptr, ptr, ptr }
%class.Scheduler = type { [200 x %"struct.Scheduler::handType"], [200 x %"struct.Scheduler::groupType"], i32, i32, %"struct.std::atomic", [6 x [200 x %"struct.Scheduler::listType"]], [200 x %"struct.Scheduler::sortType"], i32, %"class.std::vector.37", %"class.std::vector.37", %"class.std::vector.37", i32, i32, %"class.std::vector.37", %"class.std::vector.42", %class.Timer }
%"struct.Scheduler::handType" = type { i32, i32, [4 x [4 x i32]], i32, i32, i32, i32, i32, i32, i32, i32, i32, i32 }
%"struct.Scheduler::groupType" = type { i32, i32, i32, i32, i32, i32 }
%"struct.std::atomic" = type { %"struct.std::__atomic_base" }
%"struct.std::__atomic_base" = type { i32 }
%"struct.Scheduler::listType" = type { i32, i32, i32 }
%"struct.Scheduler::sortType" = type { i32, i32 }
%"class.std::vector.37" = type { %"struct.std::_Vector_base.38" }
%"struct.std::_Vector_base.38" = type { %"struct.std::_Vector_base<int, std::allocator<int>>::_Vector_impl" }
%"struct.std::_Vector_base<int, std::allocator<int>>::_Vector_impl" = type { %"struct.std::_Vector_base<int, std::allocator<int>>::_Vector_impl_data" }
%"struct.std::_Vector_base<int, std::allocator<int>>::_Vector_impl_data" = type { ptr, ptr, ptr }
%"class.std::vector.42" = type { %"struct.std::_Vector_base.43" }
%"struct.std::_Vector_base.43" = type { %"struct.std::_Vector_base<Timer, std::allocator<Timer>>::_Vector_impl" }
%"struct.std::_Vector_base<Timer, std::allocator<Timer>>::_Vector_impl" = type { %"struct.std::_Vector_base<Timer, std::allocator<Timer>>::_Vector_impl_data" }
%"struct.std::_Vector_base<Timer, std::allocator<Timer>>::_Vector_impl_data" = type { ptr, ptr, ptr }
%class.Timer = type { %"class.std::__cxx11::basic_string", i32, i64, i64, %"class.std::chrono::time_point", i64 }
%"class.std::__cxx11::basic_string" = type { %"struct.std::__cxx11::basic_string<char>::_Alloc_hider", i64, %union.anon }
%"struct.std::__cxx11::basic_string<char>::_Alloc_hider" = type { ptr }
%union.anon = type { i64, [8 x i8] }
%"class.std::chrono::time_point" = type { %"class.std::chrono::duration" }
%"class.std::chrono::duration" = type { i64 }
%struct.deal = type { i32, i32, [3 x i32], [3 x i32], [4 x [4 x i32]] }
%struct.playTraceBin = type { i32, [52 x i32], [52 x i32] }
%struct.solvedPlay = type { i32, [53 x i32] }
%struct.dealPBN = type { i32, i32, [3 x i32], [3 x i32], [80 x i8] }
%struct.playTracePBN = type { i32, [106 x i8] }
%struct.boards = type { i32, [200 x %struct.deal], [200 x i32], [200 x i32], [200 x i32] }
%struct.playTracesBin = type { i32, [200 x %struct.playTraceBin] }
%struct.solvedPlays = type { i32, [200 x %struct.solvedPlay] }
%struct.boardsPBN = type { i32, [200 x %struct.dealPBN], [200 x i32], [200 x i32], [200 x i32] }
%struct.playTracesPBN = type { i32, [200 x %struct.playTracePBN] }

@playparam = global %struct.paramType zeroinitializer, align 8
@traceparam = global %struct.playparamType zeroinitializer, align 8
@sysdep = external global %class.System, align 8
@scheduler = external global %class.Scheduler, align 8

; Function Attrs: mustprogress uwtable
define i32 @AnalyseAllPlaysBin(ptr noundef %0, ptr noundef %1, ptr noundef %2, i32 noundef %3) #4 {
  %5 = alloca i32, align 4
  %6 = alloca ptr, align 8
  %7 = alloca ptr, align 8
  %8 = alloca ptr, align 8
  %9 = alloca i32, align 4
  %10 = alloca i32, align 4
  store ptr %0, ptr %6, align 8
  store ptr %1, ptr %7, align 8
  store ptr %2, ptr %8, align 8
  store i32 %3, ptr %9, align 4
  store i32 0, ptr getelementptr inbounds nuw (%struct.paramType, ptr @playparam, i32 0, i32 3), align 8
  %11 = load ptr, ptr %6, align 8
  %12 = getelementptr inbounds nuw %struct.boards, ptr %11, i32 0, i32 0
  %13 = load i32, ptr %12, align 4
  %14 = icmp sgt i32 %13, 200
  br i1 %14, label %15, label %16

15:                                               ; preds = %4
  store i32 -101, ptr %5, align 4
  br label %55

16:                                               ; preds = %4
  %17 = load ptr, ptr %6, align 8
  %18 = getelementptr inbounds nuw %struct.boards, ptr %17, i32 0, i32 0
  %19 = load i32, ptr %18, align 4
  %20 = load ptr, ptr %7, align 8
  %21 = getelementptr inbounds nuw %struct.playTracesBin, ptr %20, i32 0, i32 0
  %22 = load i32, ptr %21, align 4
  %23 = icmp ne i32 %19, %22
  br i1 %23, label %24, label %25

24:                                               ; preds = %16
  store i32 -1, ptr %5, align 4
  br label %55

25:                                               ; preds = %16
  %26 = load ptr, ptr %6, align 8
  store ptr %26, ptr getelementptr inbounds nuw (%struct.paramType, ptr @playparam, i32 0, i32 1), align 8
  %27 = load ptr, ptr %7, align 8
  store ptr %27, ptr getelementptr inbounds nuw (%struct.playparamType, ptr @traceparam, i32 0, i32 1), align 8
  %28 = load ptr, ptr %6, align 8
  %29 = getelementptr inbounds nuw %struct.boards, ptr %28, i32 0, i32 0
  %30 = load i32, ptr %29, align 4
  store i32 %30, ptr @playparam, align 8
  %31 = load ptr, ptr %6, align 8
  %32 = getelementptr inbounds nuw %struct.boards, ptr %31, i32 0, i32 0
  %33 = load i32, ptr %32, align 4
  store i32 %33, ptr @traceparam, align 8
  %34 = load ptr, ptr %8, align 8
  store ptr %34, ptr getelementptr inbounds nuw (%struct.playparamType, ptr @traceparam, i32 0, i32 2), align 8
  %35 = load ptr, ptr %6, align 8
  %36 = load ptr, ptr %7, align 8
  call void @_ZN9Scheduler11RegisterRunE7RunModeRK6boardsRK13playTracesBin(ptr noundef nonnull align 8 dereferenceable(43416) @scheduler, i32 noundef 2, ptr noundef nonnull align 4 dereferenceable(21604) %35, ptr noundef nonnull align 4 dereferenceable(84004) %36)
  %37 = load ptr, ptr %6, align 8
  %38 = call noundef i32 @_ZN6System11RegisterRunE7RunModeRK6boards(ptr noundef nonnull align 8 dereferenceable(200) @sysdep, i32 noundef 2, ptr noundef nonnull align 4 dereferenceable(21604) %37)
  %39 = call noundef i32 @_ZN6System10RunThreadsEv(ptr noundef nonnull align 8 dereferenceable(200) @sysdep)
  store i32 %39, ptr %10, align 4
  %40 = load i32, ptr %10, align 4
  %41 = icmp ne i32 %40, 1
  br i1 %41, label %42, label %44

42:                                               ; preds = %25
  %43 = load i32, ptr %10, align 4
  store i32 %43, ptr %5, align 4
  br label %55

44:                                               ; preds = %25
  %45 = load ptr, ptr %6, align 8
  %46 = getelementptr inbounds nuw %struct.boards, ptr %45, i32 0, i32 0
  %47 = load i32, ptr %46, align 4
  %48 = load ptr, ptr %8, align 8
  %49 = getelementptr inbounds nuw %struct.solvedPlays, ptr %48, i32 0, i32 0
  store i32 %47, ptr %49, align 4
  %50 = load i32, ptr getelementptr inbounds nuw (%struct.paramType, ptr @playparam, i32 0, i32 3), align 8
  %51 = icmp eq i32 %50, 0
  br i1 %51, label %52, label %53

52:                                               ; preds = %44
  store i32 1, ptr %5, align 4
  br label %55

53:                                               ; preds = %44
  %54 = load i32, ptr getelementptr inbounds nuw (%struct.paramType, ptr @playparam, i32 0, i32 3), align 8
  store i32 %54, ptr %5, align 4
  br label %55

55:                                               ; preds = %53, %52, %42, %24, %15
  %56 = load i32, ptr %5, align 4
  ret i32 %56
}

; Function Attrs: mustprogress uwtable
define i32 @AnalyseAllPlaysPBN(ptr noundef %0, ptr noundef %1, ptr noundef %2, i32 noundef %3) #4 {
  %5 = alloca i32, align 4
  %6 = alloca ptr, align 8
  %7 = alloca ptr, align 8
  %8 = alloca ptr, align 8
  %9 = alloca i32, align 4
  %10 = alloca %struct.boards, align 4
  %11 = alloca %struct.playTracesBin, align 4
  %12 = alloca i32, align 4
  %13 = alloca ptr, align 8
  %14 = alloca ptr, align 8
  %15 = alloca i32, align 4
  %16 = alloca i32, align 4
  store ptr %0, ptr %6, align 8
  store ptr %1, ptr %7, align 8
  store ptr %2, ptr %8, align 8
  store i32 %3, ptr %9, align 4
  %17 = load ptr, ptr %6, align 8
  %18 = getelementptr inbounds nuw %struct.boardsPBN, ptr %17, i32 0, i32 0
  %19 = load i32, ptr %18, align 4
  %20 = getelementptr inbounds nuw %struct.boards, ptr %10, i32 0, i32 0
  store i32 %19, ptr %20, align 4
  %21 = getelementptr inbounds nuw %struct.boards, ptr %10, i32 0, i32 0
  %22 = load i32, ptr %21, align 4
  %23 = icmp sgt i32 %22, 200
  br i1 %23, label %24, label %25

24:                                               ; preds = %4
  store i32 -101, ptr %5, align 4
  br label %127

25:                                               ; preds = %4
  store i32 0, ptr %12, align 4
  br label %26

26:                                               ; preds = %92, %25
  %27 = load i32, ptr %12, align 4
  %28 = load ptr, ptr %6, align 8
  %29 = getelementptr inbounds nuw %struct.boardsPBN, ptr %28, i32 0, i32 0
  %30 = load i32, ptr %29, align 4
  %31 = icmp slt i32 %27, %30
  br i1 %31, label %32, label %95

32:                                               ; preds = %26
  %33 = getelementptr inbounds nuw %struct.boards, ptr %10, i32 0, i32 1
  %34 = load i32, ptr %12, align 4
  %35 = sext i32 %34 to i64
  %36 = getelementptr inbounds [200 x %struct.deal], ptr %33, i64 0, i64 %35
  store ptr %36, ptr %13, align 8
  %37 = load ptr, ptr %6, align 8
  %38 = getelementptr inbounds nuw %struct.boardsPBN, ptr %37, i32 0, i32 1
  %39 = load i32, ptr %12, align 4
  %40 = sext i32 %39 to i64
  %41 = getelementptr inbounds [200 x %struct.dealPBN], ptr %38, i64 0, i64 %40
  store ptr %41, ptr %14, align 8
  %42 = load ptr, ptr %14, align 8
  %43 = getelementptr inbounds nuw %struct.dealPBN, ptr %42, i32 0, i32 4
  %44 = getelementptr inbounds [80 x i8], ptr %43, i64 0, i64 0
  %45 = load ptr, ptr %13, align 8
  %46 = getelementptr inbounds nuw %struct.deal, ptr %45, i32 0, i32 4
  %47 = getelementptr inbounds [4 x [4 x i32]], ptr %46, i64 0, i64 0
  %48 = call noundef i32 @_Z14ConvertFromPBNPKcPA4_j(ptr noundef %44, ptr noundef %47)
  %49 = icmp ne i32 %48, 1
  br i1 %49, label %50, label %51

50:                                               ; preds = %32
  store i32 -99, ptr %5, align 4
  br label %127

51:                                               ; preds = %32
  %52 = load ptr, ptr %14, align 8
  %53 = getelementptr inbounds nuw %struct.dealPBN, ptr %52, i32 0, i32 0
  %54 = load i32, ptr %53, align 4
  %55 = load ptr, ptr %13, align 8
  %56 = getelementptr inbounds nuw %struct.deal, ptr %55, i32 0, i32 0
  store i32 %54, ptr %56, align 4
  %57 = load ptr, ptr %14, align 8
  %58 = getelementptr inbounds nuw %struct.dealPBN, ptr %57, i32 0, i32 1
  %59 = load i32, ptr %58, align 4
  %60 = load ptr, ptr %13, align 8
  %61 = getelementptr inbounds nuw %struct.deal, ptr %60, i32 0, i32 1
  store i32 %59, ptr %61, align 4
  store i32 0, ptr %15, align 4
  br label %62

62:                                               ; preds = %88, %51
  %63 = load i32, ptr %15, align 4
  %64 = icmp sle i32 %63, 2
  br i1 %64, label %65, label %91

65:                                               ; preds = %62
  %66 = load ptr, ptr %14, align 8
  %67 = getelementptr inbounds nuw %struct.dealPBN, ptr %66, i32 0, i32 2
  %68 = load i32, ptr %15, align 4
  %69 = sext i32 %68 to i64
  %70 = getelementptr inbounds [3 x i32], ptr %67, i64 0, i64 %69
  %71 = load i32, ptr %70, align 4
  %72 = load ptr, ptr %13, align 8
  %73 = getelementptr inbounds nuw %struct.deal, ptr %72, i32 0, i32 2
  %74 = load i32, ptr %15, align 4
  %75 = sext i32 %74 to i64
  %76 = getelementptr inbounds [3 x i32], ptr %73, i64 0, i64 %75
  store i32 %71, ptr %76, align 4
  %77 = load ptr, ptr %14, align 8
  %78 = getelementptr inbounds nuw %struct.dealPBN, ptr %77, i32 0, i32 3
  %79 = load i32, ptr %15, align 4
  %80 = sext i32 %79 to i64
  %81 = getelementptr inbounds [3 x i32], ptr %78, i64 0, i64 %80
  %82 = load i32, ptr %81, align 4
  %83 = load ptr, ptr %13, align 8
  %84 = getelementptr inbounds nuw %struct.deal, ptr %83, i32 0, i32 3
  %85 = load i32, ptr %15, align 4
  %86 = sext i32 %85 to i64
  %87 = getelementptr inbounds [3 x i32], ptr %84, i64 0, i64 %86
  store i32 %82, ptr %87, align 4
  br label %88

88:                                               ; preds = %65
  %89 = load i32, ptr %15, align 4
  %90 = add nsw i32 %89, 1
  store i32 %90, ptr %15, align 4
  br label %62, !llvm.loop !9

91:                                               ; preds = %62
  br label %92

92:                                               ; preds = %91
  %93 = load i32, ptr %12, align 4
  %94 = add nsw i32 %93, 1
  store i32 %94, ptr %12, align 4
  br label %26, !llvm.loop !10

95:                                               ; preds = %26
  %96 = load ptr, ptr %7, align 8
  %97 = getelementptr inbounds nuw %struct.playTracesPBN, ptr %96, i32 0, i32 0
  %98 = load i32, ptr %97, align 4
  %99 = getelementptr inbounds nuw %struct.playTracesBin, ptr %11, i32 0, i32 0
  store i32 %98, ptr %99, align 4
  store i32 0, ptr %16, align 4
  br label %100

100:                                              ; preds = %120, %95
  %101 = load i32, ptr %16, align 4
  %102 = load ptr, ptr %7, align 8
  %103 = getelementptr inbounds nuw %struct.playTracesPBN, ptr %102, i32 0, i32 0
  %104 = load i32, ptr %103, align 4
  %105 = icmp slt i32 %101, %104
  br i1 %105, label %106, label %123

106:                                              ; preds = %100
  %107 = load ptr, ptr %7, align 8
  %108 = getelementptr inbounds nuw %struct.playTracesPBN, ptr %107, i32 0, i32 1
  %109 = load i32, ptr %16, align 4
  %110 = sext i32 %109 to i64
  %111 = getelementptr inbounds [200 x %struct.playTracePBN], ptr %108, i64 0, i64 %110
  %112 = getelementptr inbounds nuw %struct.playTracesBin, ptr %11, i32 0, i32 1
  %113 = load i32, ptr %16, align 4
  %114 = sext i32 %113 to i64
  %115 = getelementptr inbounds [200 x %struct.playTraceBin], ptr %112, i64 0, i64 %114
  %116 = call noundef i32 @_Z18ConvertPlayFromPBNRK12playTracePBNR12playTraceBin(ptr noundef nonnull align 4 dereferenceable(112) %111, ptr noundef nonnull align 4 dereferenceable(420) %115)
  %117 = icmp ne i32 %116, 1
  br i1 %117, label %118, label %119

118:                                              ; preds = %106
  store i32 -98, ptr %5, align 4
  br label %127

119:                                              ; preds = %106
  br label %120

120:                                              ; preds = %119
  %121 = load i32, ptr %16, align 4
  %122 = add nsw i32 %121, 1
  store i32 %122, ptr %16, align 4
  br label %100, !llvm.loop !11

123:                                              ; preds = %100
  store i32 1, ptr %9, align 4
  %124 = load ptr, ptr %8, align 8
  %125 = load i32, ptr %9, align 4
  %126 = call i32 @AnalyseAllPlaysBin(ptr noundef %10, ptr noundef %11, ptr noundef %124, i32 noundef %125)
  store i32 %126, ptr %5, align 4
  br label %127

127:                                              ; preds = %123, %118, %50, %24
  %128 = load i32, ptr %5, align 4
  ret i32 %128
}