; Function Attrs: mustprogress uwtable
define i32 @AnalyseAllPlaysPBN(ptr noundef %0, ptr noundef %1, ptr noundef %2, i32 noundef %3) local_unnamed_addr #3 {
  %5 = alloca %struct.boards, align 4
  %6 = alloca %struct.playTracesBin, align 4
  %7 = load i32, ptr %0, align 4
  store i32 %7, ptr %5, align 4
  %8 = icmp sgt i32 %7, 200
  br i1 %8, label %AnalyseAllPlaysBin.exit, label %.preheader

.preheader:                                       ; preds = %4
  %9 = icmp sgt i32 %7, 0
  br i1 %9, label %.lr.ph, label %._crit_edge

.lr.ph:                                           ; preds = %.preheader
  %10 = getelementptr inbounds nuw i8, ptr %5, i64 4
  %11 = getelementptr inbounds nuw i8, ptr %0, i64 4
  br label %12

12:                                               ; preds = %.lr.ph, %34
  %indvars.iv45 = phi i64 [ 0, %.lr.ph ], [ %indvars.iv.next46, %34 ]
  %13 = getelementptr inbounds [200 x %struct.deal], ptr %10, i64 0, i64 %indvars.iv45
  %14 = getelementptr inbounds [200 x %struct.dealPBN], ptr %11, i64 0, i64 %indvars.iv45
  %15 = getelementptr inbounds nuw i8, ptr %14, i64 32
  %16 = getelementptr inbounds nuw i8, ptr %13, i64 32
  %17 = call noundef i32 @_Z14ConvertFromPBNPKcPA4_j(ptr noundef nonnull %15, ptr noundef nonnull %16)
  %.not35 = icmp eq i32 %17, 1
  br i1 %.not35, label %18, label %AnalyseAllPlaysBin.exit

18:                                               ; preds = %12
  %19 = load i32, ptr %14, align 4
  store i32 %19, ptr %13, align 4
  %20 = getelementptr inbounds nuw i8, ptr %14, i64 4
  %21 = load i32, ptr %20, align 4
  %22 = getelementptr inbounds nuw i8, ptr %13, i64 4
  store i32 %21, ptr %22, align 4
  %23 = getelementptr inbounds nuw i8, ptr %14, i64 8
  %24 = getelementptr inbounds nuw i8, ptr %13, i64 8
  %25 = getelementptr inbounds nuw i8, ptr %14, i64 20
  %26 = getelementptr inbounds nuw i8, ptr %13, i64 20
  br label %27

27:                                               ; preds = %18, %27
  %indvars.iv = phi i64 [ 0, %18 ], [ %indvars.iv.next, %27 ]
  %28 = getelementptr inbounds [3 x i32], ptr %23, i64 0, i64 %indvars.iv
  %29 = load i32, ptr %28, align 4
  %30 = getelementptr inbounds [3 x i32], ptr %24, i64 0, i64 %indvars.iv
  store i32 %29, ptr %30, align 4
  %31 = getelementptr inbounds [3 x i32], ptr %25, i64 0, i64 %indvars.iv
  %32 = load i32, ptr %31, align 4
  %33 = getelementptr inbounds [3 x i32], ptr %26, i64 0, i64 %indvars.iv
  store i32 %32, ptr %33, align 4
  %indvars.iv.next = add nuw nsw i64 %indvars.iv, 1
  %exitcond.not = icmp eq i64 %indvars.iv.next, 3
  br i1 %exitcond.not, label %34, label %27, !llvm.loop !8

34:                                               ; preds = %27
  %indvars.iv.next46 = add nuw nsw i64 %indvars.iv45, 1
  %35 = load i32, ptr %0, align 4
  %36 = sext i32 %35 to i64
  %37 = icmp slt i64 %indvars.iv.next46, %36
  br i1 %37, label %12, label %._crit_edge, !llvm.loop !9

._crit_edge:                                      ; preds = %34, %.preheader
  %38 = load i32, ptr %1, align 4
  store i32 %38, ptr %6, align 4
  %39 = icmp sgt i32 %38, 0
  br i1 %39, label %.lr.ph41, label %._crit_edge42

.lr.ph41:                                         ; preds = %._crit_edge
  %40 = getelementptr inbounds nuw i8, ptr %1, i64 4
  %41 = getelementptr inbounds nuw i8, ptr %6, i64 4
  br label %46

42:                                               ; preds = %46
  %indvars.iv.next49 = add nuw nsw i64 %indvars.iv48, 1
  %43 = load i32, ptr %1, align 4
  %44 = sext i32 %43 to i64
  %45 = icmp slt i64 %indvars.iv.next49, %44
  br i1 %45, label %46, label %._crit_edge42, !llvm.loop !10

46:                                               ; preds = %.lr.ph41, %42
  %indvars.iv48 = phi i64 [ 0, %.lr.ph41 ], [ %indvars.iv.next49, %42 ]
  %47 = getelementptr inbounds [200 x %struct.playTracePBN], ptr %40, i64 0, i64 %indvars.iv48
  %48 = getelementptr inbounds [200 x %struct.playTraceBin], ptr %41, i64 0, i64 %indvars.iv48
  %49 = call noundef i32 @_Z18ConvertPlayFromPBNRK12playTracePBNR12playTraceBin(ptr noundef nonnull align 4 dereferenceable(112) %47, ptr noundef nonnull align 4 dereferenceable(420) %48)
  %.not = icmp eq i32 %49, 1
  br i1 %.not, label %42, label %AnalyseAllPlaysBin.exit

._crit_edge42:                                    ; preds = %42, %._crit_edge
  store i32 0, ptr getelementptr inbounds nuw (i8, ptr @playparam, i64 24), align 8
  %50 = load i32, ptr %5, align 4
  %51 = icmp sgt i32 %50, 200
  br i1 %51, label %AnalyseAllPlaysBin.exit, label %52

52:                                               ; preds = %._crit_edge42
  %53 = load i32, ptr %6, align 4
  %.not.i = icmp eq i32 %50, %53
  br i1 %.not.i, label %54, label %AnalyseAllPlaysBin.exit

54:                                               ; preds = %52
  store ptr %5, ptr getelementptr inbounds nuw (i8, ptr @playparam, i64 8), align 8
  store ptr %6, ptr getelementptr inbounds nuw (i8, ptr @traceparam, i64 8), align 8
  store i32 %50, ptr @playparam, align 8
  store i32 %50, ptr @traceparam, align 8
  store ptr %2, ptr getelementptr inbounds nuw (i8, ptr @traceparam, i64 16), align 8
  call void @_ZN9Scheduler11RegisterRunE7RunModeRK6boardsRK13playTracesBin(ptr noundef nonnull align 8 dereferenceable(43416) @scheduler, i32 noundef 2, ptr noundef nonnull align 4 dereferenceable(21604) %5, ptr noundef nonnull align 4 dereferenceable(84004) %6)
  %55 = call noundef i32 @_ZN6System11RegisterRunE7RunModeRK6boards(ptr noundef nonnull align 8 dereferenceable(200) @sysdep, i32 noundef 2, ptr noundef nonnull align 4 dereferenceable(21604) %5)
  %56 = call noundef i32 @_ZN6System10RunThreadsEv(ptr noundef nonnull align 8 dereferenceable(200) @sysdep)
  %.not18.i = icmp eq i32 %56, 1
  br i1 %.not18.i, label %57, label %AnalyseAllPlaysBin.exit

57:                                               ; preds = %54
  %58 = load i32, ptr %5, align 4
  store i32 %58, ptr %2, align 4
  %59 = load i32, ptr getelementptr inbounds nuw (i8, ptr @playparam, i64 24), align 8
  %..i = call i32 @llvm.umax.i32(i32 %59, i32 1)
  br label %AnalyseAllPlaysBin.exit

AnalyseAllPlaysBin.exit:                          ; preds = %12, %46, %57, %54, %52, %._crit_edge42, %4
  %.033 = phi i32 [ -101, %4 ], [ -101, %._crit_edge42 ], [ -1, %52 ], [ %56, %54 ], [ %..i, %57 ], [ -98, %46 ], [ -99, %12 ]
  ret i32 %.033
}